Certificate:
    Data:
        Version: 3 (0x2)
        Serial Number: 1948792645 (0x74283745)
        Signature Algorithm: sha256WithRSAEncryption
        Issuer: C=AU, ST=Some-State, O=Internet Widgits Pty Ltd
        Validity
            Not Before: Dec  3 17:05:26 2024 GMT
            Not After : Dec  3 17:05:26 2025 GMT
        Subject: C=AU, ST=Some-State, O=Internet Widgits Pty Ltd
        Subject Public Key Info:
            Public Key Algorithm: rsaEncryption
                Public-Key: (4096 bit)
                Modulus:
                    00:a8:ab:c6:10:9d:68:22:76:cb:9f:5a:6d:0e:c2:
                    cf:b4:70:2e:0c:19:e9:1d:5c:55:38:26:7a:2c:81:
                    fe:67:5a:54:a5:07:dc:6f:96:18:35:0d:57:8a:88:
                    4c:f1:e0:e9:94:6b:6e:8e:ed:91:98:56:b9:53:f1:
                    15:eb:f9:4d:52:d5:ee:5f:3c:65:73:c2:3f:d9:1f:
                    31:ca:8b:57:39:2c:4f:dd:09:62:a1:35:9f:4f:c2:
                    ef:9e:40:92:cd:7b:53:95:ee:c7:b1:72:82:30:8d:
                    84:af:08:f7:6d:3c:c5:aa:29:fa:7e:0f:d9:58:3c:
                    39:ab:0a:99:73:c7:bf:80:b7:b9:b6:5a:83:95:41:
                    76:56:2d:12:e5:c2:c4:59:b0:f7:38:43:3b:a3:c8:
                    25:cc:7a:36:5e:4c:66:19:2a:7e:1a:21:a5:38:fd:
                    28:9b:c5:83:21:a0:5c:46:5a:07:f1:64:be:1f:f6:
                    65:ec:70:19:45:36:56:80:b2:97:99:9d:27:30:45:
                    43:9f:3f:92:dd:6e:4e:e6:6a:08:2c:a2:13:28:7f:
                    cd:4c:f8:96:ae:8f:8b:cb:c4:7f:28:51:c4:ca:e9:
                    5b:c7:99:11:fc:7a:fa:d4:4b:0b:6e:48:65:41:0c:
                    02:5f:d3:75:f0:a4:2d:07:a8:51:f0:d0:bf:e4:b1:
                    84:28:5d:91:dd:d8:d3:49:82:a4:03:43:84:b0:4e:
                    9f:8c:c4:5d:3e:16:bb:df:e4:6a:cc:ad:33:c3:35:
                    ec:61:33:50:6c:34:bb:f9:80:14:ca:27:37:bc:88:
                    12:31:b9:84:dd:2d:45:b1:e3:46:e5:f3:90:eb:52:
                    99:1e:50:7a:dc:21:c1:3f:0f:ad:9b:e1:bb:84:01:
                    02:e6:94:6a:3b:d1:da:63:16:69:db:1f:7c:4f:f8:
                    33:77:26:8d:22:14:96:6f:b3:82:1c:6f:a0:f8:ac:
                    80:89:99:a7:b2:92:16:ee:a3:13:79:fa:88:49:06:
                    a4:21:7e:95:5e:94:7f:25:92:b9:48:0d:f1:8f:66:
                    c5:9e:80:eb:d1:00:97:2d:a9:ce:95:a5:cb:0e:11:
                    ac:98:e7:7d:74:d4:24:b7:25:47:4c:69:a0:1f:b2:
                    22:25:88:30:1b:85:69:55:54:f3:d9:11:58:29:75:
                    ee:7a:79:a1:ed:b6:9a:69:84:43:9f:3b:3b:51:d5:
                    2a:b4:36:da:fb:b4:b5:b8:f8:99:c1:34:bc:96:61:
                    06:01:d7:2f:fb:ee:d9:32:81:82:f4:2f:e4:cc:a5:
                    79:eb:8b:00:61:e0:77:66:fc:b3:16:7b:ee:a8:74:
                    2b:aa:5a:5d:12:0e:7b:c2:29:ca:fe:36:03:8f:44:
                    26:97:35
                Exponent: 65537 (0x10001)
        X509v3 extensions:
            X509v3 Basic Constraints: 
                CA:FALSE
            X509v3 Subject Key Identifier: 
                1D:BE:8E:CD:AA:0D:FA:92:07:29:4A:5E:53:DC:DA:AD:03:8A:B8:CB
            X509v3 Authority Key Identifier: 
                7C:A4:49:DB:3A:CD:D5:DA:A5:98:15:EB:56:FA:2C:81:83:38:CC:8A
    Signature Algorithm: sha256WithRSAEncryption
    Signature Value:
        0e:61:9e:03:f1:e4:fe:d2:f1:62:d7:8c:38:d9:01:ac:45:8b:
        81:87:f6:f1:8d:d8:51:84:7e:72:d4:52:a3:b1:6d:f4:11:6c:
        d2:3a:93:38:16:d0:4d:7f:b3:c6:ca:b4:11:10:58:4b:06:6b:
        00:8a:f4:1b:f5:86:69:b3:05:75:57:9f:77:c6:06:51:26:27:
        41:5e:18:97:30:a2:2a:f8:de:67:61:f2:73:8b:cd:3d:13:98:
        2e:ad:f5:ed:27:02:39:f2:df:b6:af:ff:8f:5b:16:1a:a5:44:
        35:d0:64:54:1b:01:14:10:29:4b:01:b3:40:fc:d7:17:2b:4c:
        a1:8b:24:91:c0:b0:db:7b:41:6d:35:0f:a0:ba:bb:0f:95:c1:
        22:df:b4:a7:ee:e3:41:1f:4b:19:13:a7:fb:19:df:83:4e:37:
        9d:2b:ad:87:fa:3e:75:70:7f:c4:51:05:5c:f8:d1:09:13:c0:
        22:e3:19:0c:1f:ac:63:ed:bc:52:c8:29:d4:2a:cf:90:c2:8a:
        f6:df:20:6f:20:86:17:c5:6f:79:d0:21:48:b7:e6:80:46:d8:
        12:02:c6:1a:78:e5:58:ff:dd:94:93:e0:32:ff:4c:8e:f3:f8:
        e2:6d:ab:8b:12:83:48:72:23:55:9b:ba:be:a7:d2:7d:9f:18:
        69:8a:61:4a:aa:7f:64:8d:d8:46:0e:bc:b9:0b:46:a4:78:1d:
        be:1c:f9:5c:12:db:30:c9:dd:45:ab:11:fd:a2:70:ef:e6:54:
        c9:6b:93:9a:45:fe:7f:7c:62:b4:b9:58:f3:e5:41:f1:d3:41:
        4e:25:51:13:69:8f:6e:65:2d:3c:d5:b1:2f:70:d0:46:57:ea:
        6a:4a:13:68:22:d0:16:f9:ed:a8:9e:59:83:ca:04:62:4c:08:
        cc:ee:81:18:1e:a6:d6:ce:e4:dd:8c:27:6f:40:77:7d:d1:1a:
        e1:c3:c1:1e:b1:ec:76:0d:b1:ef:ac:b8:de:9e:55:c0:b8:0e:
        08:cf:b2:2a:7f:71:8a:19:d1:85:62:df:7c:ef:dc:13:d5:38:
        5f:51:68:8d:8b:5a:60:bb:e8:57:77:d0:5b:c4:30:64:61:5d:
        2a:a2:51:49:5e:ae:00:dc:16:ee:e2:59:59:37:4e:1b:bc:0c:
        43:35:b4:46:77:17:73:d7:cf:8e:59:03:4e:53:da:3f:00:72:
        bb:ee:b0:87:4a:01:9e:50:cd:8f:3f:c9:8f:2b:1f:64:0d:85:
        46:95:6b:03:40:30:d7:8a:e1:63:1b:5c:c6:8a:41:71:d2:6b:
        fe:5f:2b:7e:7d:9a:59:8b:4f:6d:25:6f:ad:b3:52:ac:1b:02:
        b7:7f:02:9a:3f:06:30:68
-----BEGIN CERTIFICATE-----
MIIFVTCCAz2gAwIBAgIEdCg3RTANBgkqhkiG9w0BAQsFADBFMQswCQYDVQQGEwJB
VTETMBEGA1UECAwKU29tZS1TdGF0ZTEhMB8GA1UECgwYSW50ZXJuZXQgV2lkZ2l0
cyBQdHkgTHRkMB4XDTI0MTIwMzE3MDUyNloXDTI1MTIwMzE3MDUyNlowRTELMAkG
A1UEBhMCQVUxEzARBgNVBAgMClNvbWUtU3RhdGUxITAfBgNVBAoMGEludGVybmV0
IFdpZGdpdHMgUHR5IEx0ZDCCAiIwDQYJKoZIhvcNAQEBBQADggIPADCCAgoCggIB
AKirxhCdaCJ2y59abQ7Cz7RwLgwZ6R1cVTgmeiyB/mdaVKUH3G+WGDUNV4qITPHg
6ZRrbo7tkZhWuVPxFev5TVLV7l88ZXPCP9kfMcqLVzksT90JYqE1n0/C755Aks17
U5Xux7FygjCNhK8I9208xaop+n4P2Vg8OasKmXPHv4C3ubZag5VBdlYtEuXCxFmw
9zhDO6PIJcx6Nl5MZhkqfhohpTj9KJvFgyGgXEZaB/Fkvh/2ZexwGUU2VoCyl5md
JzBFQ58/kt1uTuZqCCyiEyh/zUz4lq6Pi8vEfyhRxMrpW8eZEfx6+tRLC25IZUEM
Al/TdfCkLQeoUfDQv+SxhChdkd3Y00mCpANDhLBOn4zEXT4Wu9/kasytM8M17GEz
UGw0u/mAFMonN7yIEjG5hN0tRbHjRuXzkOtSmR5QetwhwT8PrZvhu4QBAuaUajvR
2mMWadsffE/4M3cmjSIUlm+zghxvoPisgImZp7KSFu6jE3n6iEkGpCF+lV6UfyWS
uUgN8Y9mxZ6A69EAly2pzpWlyw4RrJjnfXTUJLclR0xpoB+yIiWIMBuFaVVU89kR
WCl17np5oe22mmmEQ587O1HVKrQ22vu0tbj4mcE0vJZhBgHXL/vu2TKBgvQv5Myl
eeuLAGHgd2b8sxZ77qh0K6paXRIOe8Ipyv42A49EJpc1AgMBAAGjTTBLMAkGA1Ud
EwQCMAAwHQYDVR0OBBYEFB2+js2qDfqSBylKXlPc2q0DirjLMB8GA1UdIwQYMBaA
FHykSds6zdXapZgV61b6LIGDOMyKMA0GCSqGSIb3DQEBCwUAA4ICAQAOYZ4D8eT+
0vFi14w42QGsRYuBh/bxjdhRhH5y1FKjsW30EWzSOpM4FtBNf7PGyrQREFhLBmsA
ivQb9YZpswV1V593xgZRJidBXhiXMKIq+N5nYfJzi809E5gurfXtJwI58t+2r/+P
WxYapUQ10GRUGwEUEClLAbNA/NcXK0yhiySRwLDbe0FtNQ+gursPlcEi37Sn7uNB
H0sZE6f7Gd+DTjedK62H+j51cH/EUQVc+NEJE8Ai4xkMH6xj7bxSyCnUKs+Qwor2
3yBvIIYXxW950CFIt+aARtgSAsYaeOVY/92Uk+Ay/0yO8/jibauLEoNIciNVm7q+
p9J9nxhpimFKqn9kjdhGDry5C0akeB2+HPlcEtswyd1FqxH9onDv5lTJa5OaRf5/
fGK0uVjz5UHx00FOJVETaY9uZS081bEvcNBGV+pqShNoItAW+e2onlmDygRiTAjM
7oEYHqbWzuTdjCdvQHd90Rrhw8Eesex2DbHvrLjenlXAuA4Iz7Iqf3GKGdGFYt98
79wT1ThfUWiNi1pgu+hXd9BbxDBkYV0qolFJXq4A3Bbu4llZN04bvAxDNbRGdxdz
18+OWQNOU9o/AHK77rCHSgGeUM2PP8mPKx9kDYVGlWsDQDDXiuFjG1zGikFx0mv+
Xyt+fZpZi09tJW+ts1KsGwK3fwKaPwYwaA==
-----END CERTIFICATE-----
